target datalayout = "e-m:e-p270:32:32-p271:32:32-p272:64:64-i64:64-i128:128-f80:128-n8:16:32:64-S128"
target triple = "x86_64-pc-linux-gnu"

@stderr = external global ptr, align 8
@use_color = internal global i32 -1, align 4
@.str.23 = private unnamed_addr constant [16 x i8] c"\1B[%u;3%um%s\1B[0m\00", align 1
@.str.24 = private unnamed_addr constant [27 x i8] c"\1B[48;5;%um\1B[38;5;%dm%s\1B[0m\00", align 1
@.str.25 = private unnamed_addr constant [27 x i8] c"\1B[48;5;%um\1B[38;5;%um%s\1B[0m\00", align 1

; Function Attrs: nounwind uwtable
define internal void @ansi_fputs(i32 noundef %0, i32 noundef %1, ptr noundef %2, i32 noundef %3) #0 {
  %5 = alloca i32, align 4
  %6 = alloca i32, align 4
  %7 = alloca ptr, align 8
  %8 = alloca i32, align 4
  store i32 %0, ptr %5, align 4, !tbaa !16
  store i32 %1, ptr %6, align 4, !tbaa !16
  store ptr %2, ptr %7, align 8, !tbaa !17
  store i32 %3, ptr %8, align 4, !tbaa !16
  %9 = load i32, ptr %8, align 4, !tbaa !16
  %10 = icmp eq i32 %9, 1
  br i1 %10, label %11, label %26

11:                                               ; preds = %4
  %12 = load ptr, ptr @stderr, align 8, !tbaa !33
  %13 = load i32, ptr %5, align 4, !tbaa !16
  %14 = sext i32 %13 to i64
  %15 = getelementptr inbounds [62 x i32], ptr @color, i64 0, i64 %14
  %16 = load i32, ptr %15, align 4, !tbaa !16
  %17 = lshr i32 %16, 4
  %18 = and i32 %17, 15
  %19 = load i32, ptr %5, align 4, !tbaa !16
  %20 = sext i32 %19 to i64
  %21 = getelementptr inbounds [62 x i32], ptr @color, i64 0, i64 %20
  %22 = load i32, ptr %21, align 4, !tbaa !16
  %23 = and i32 %22, 15
  %24 = load ptr, ptr %7, align 8, !tbaa !17
  %25 = call i32 (ptr, ptr, ...) @fprintf(ptr noundef %12, ptr noundef @.str.23, i32 noundef %18, i32 noundef %23, ptr noundef %24) #7
  br label %68

26:                                               ; preds = %4
  %27 = load i32, ptr %6, align 4, !tbaa !16
  %28 = icmp ne i32 %27, 0
  br i1 %28, label %29, label %43

29:                                               ; preds = %26
  %30 = load i32, ptr @use_color, align 4, !tbaa !16
  %31 = icmp eq i32 %30, 256
  br i1 %31, label %32, label %43

32:                                               ; preds = %29
  %33 = load ptr, ptr @stderr, align 8, !tbaa !33
  %34 = load i32, ptr %5, align 4, !tbaa !16
  %35 = sext i32 %34 to i64
  %36 = getelementptr inbounds [62 x i32], ptr @color, i64 0, i64 %35
  %37 = load i32, ptr %36, align 4, !tbaa !16
  %38 = lshr i32 %37, 16
  %39 = and i32 %38, 255
  %40 = load i32, ptr %6, align 4, !tbaa !16
  %41 = load ptr, ptr %7, align 8, !tbaa !17
  %42 = call i32 (ptr, ptr, ...) @fprintf(ptr noundef %33, ptr noundef @.str.24, i32 noundef %39, i32 noundef %40, ptr noundef %41) #7
  br label %67

43:                                               ; preds = %29, %26
  %44 = load i32, ptr %8, align 4, !tbaa !16
  %45 = icmp eq i32 %44, 256
  br i1 %45, label %46, label %62

46:                                               ; preds = %43
  %47 = load ptr, ptr @stderr, align 8, !tbaa !33
  %48 = load i32, ptr %5, align 4, !tbaa !16
  %49 = sext i32 %48 to i64
  %50 = getelementptr inbounds [62 x i32], ptr @color, i64 0, i64 %49
  %51 = load i32, ptr %50, align 4, !tbaa !16
  %52 = lshr i32 %51, 16
  %53 = and i32 %52, 255
  %54 = load i32, ptr %5, align 4, !tbaa !16
  %55 = sext i32 %54 to i64
  %56 = getelementptr inbounds [62 x i32], ptr @color, i64 0, i64 %55
  %57 = load i32, ptr %56, align 4, !tbaa !16
  %58 = lshr i32 %57, 8
  %59 = and i32 %58, 255
  %60 = load ptr, ptr %7, align 8, !tbaa !17
  %61 = call i32 (ptr, ptr, ...) @fprintf(ptr noundef %47, ptr noundef @.str.25, i32 noundef %53, i32 noundef %59, ptr noundef %60) #7
  br label %66

62:                                               ; preds = %43
  %63 = load ptr, ptr %7, align 8, !tbaa !17
  %64 = load ptr, ptr @stderr, align 8, !tbaa !33
  %65 = call i32 @fputs(ptr noundef %63, ptr noundef %64)
  br label %66

66:                                               ; preds = %62, %46
  br label %67

67:                                               ; preds = %66, %32
  br label %68

68:                                               ; preds = %67, %11
  ret void
}