; Function Attrs: cold nofree nounwind uwtable
define internal fastcc void @ansi_fputs(i32 noundef %0, i32 noundef range(i32 0, 256) %1, ptr noundef %2, i32 noundef %3) unnamed_addr #11 {
  %5 = icmp eq i32 %3, 1
  br i1 %5, label %6, label %15

6:                                                ; preds = %4
  %7 = load ptr, ptr @stderr, align 8, !tbaa !30
  %8 = sext i32 %0 to i64
  %9 = getelementptr inbounds [62 x i32], ptr @color, i64 0, i64 %8
  %10 = load i32, ptr %9, align 4, !tbaa !17
  %11 = lshr i32 %10, 4
  %12 = and i32 %11, 15
  %13 = and i32 %10, 15
  %14 = tail call i32 (ptr, ptr, ...) @fprintf(ptr noundef %7, ptr noundef nonnull @.str.23, i32 noundef %12, i32 noundef %13, ptr noundef %2) #16
  br label %41

15:                                               ; preds = %4
  %16 = icmp ne i32 %1, 0
  %17 = load i32, ptr @use_color, align 4
  %18 = icmp eq i32 %17, 256
  %or.cond = select i1 %16, i1 %18, i1 false
  br i1 %or.cond, label %19, label %27

19:                                               ; preds = %15
  %20 = load ptr, ptr @stderr, align 8, !tbaa !30
  %21 = sext i32 %0 to i64
  %22 = getelementptr inbounds [62 x i32], ptr @color, i64 0, i64 %21
  %23 = load i32, ptr %22, align 4, !tbaa !17
  %24 = lshr i32 %23, 16
  %25 = and i32 %24, 255
  %26 = tail call i32 (ptr, ptr, ...) @fprintf(ptr noundef %20, ptr noundef nonnull @.str.24, i32 noundef %25, i32 noundef %1, ptr noundef %2) #16
  br label %41

27:                                               ; preds = %15
  %28 = icmp eq i32 %3, 256
  %29 = load ptr, ptr @stderr, align 8, !tbaa !30
  br i1 %28, label %30, label %39

30:                                               ; preds = %27
  %31 = sext i32 %0 to i64
  %32 = getelementptr inbounds [62 x i32], ptr @color, i64 0, i64 %31
  %33 = load i32, ptr %32, align 4, !tbaa !17
  %34 = lshr i32 %33, 16
  %35 = and i32 %34, 255
  %36 = lshr i32 %33, 8
  %37 = and i32 %36, 255
  %38 = tail call i32 (ptr, ptr, ...) @fprintf(ptr noundef %29, ptr noundef nonnull @.str.25, i32 noundef %35, i32 noundef %37, ptr noundef %2) #16
  br label %41

39:                                               ; preds = %27
  %40 = tail call i32 @fputs(ptr noundef %2, ptr noundef %29) #17
  br label %41

41:                                               ; preds = %19, %39, %30, %6
  ret void
}